target datalayout = "e-m:e-p270:32:32-p271:32:32-p272:64:64-i64:64-i128:128-f80:128-n8:16:32:64-S128"
target triple = "x86_64-pc-linux-gnu"

@histogram_energies = internal global [1000 x double] zeroinitializer, align 16
@histogram_energy_boundaries = internal global [1001 x double] zeroinitializer, align 16

; Function Attrs: inlinehint nounwind uwtable
define internal void @init_histogram() #3 {
  %1 = alloca i32, align 4
  call void @llvm.lifetime.start.p0(i64 4, ptr %1) #7
  %2 = call nsz double @llvm.pow.f64(double 1.000000e+01, double 0xC01BB93DD97F62B6)
  store double %2, ptr @histogram_energy_boundaries, align 16, !tbaa !38
  store i32 0, ptr %1, align 4, !tbaa !4
  br label %3

3:                                                ; preds = %17, %0
  %4 = load i32, ptr %1, align 4, !tbaa !4
  %5 = icmp slt i32 %4, 1000
  br i1 %5, label %6, label %20

6:                                                ; preds = %3
  %7 = load i32, ptr %1, align 4, !tbaa !4
  %8 = sitofp i32 %7 to double
  %9 = fdiv nsz double %8, 1.000000e+01
  %10 = fsub nsz double %9, 6.995000e+01
  %11 = fadd nsz double %10, 6.910000e-01
  %12 = fdiv nsz double %11, 1.000000e+01
  %13 = call nsz double @llvm.pow.f64(double 1.000000e+01, double %12)
  %14 = load i32, ptr %1, align 4, !tbaa !4
  %15 = sext i32 %14 to i64
  %16 = getelementptr inbounds [1000 x double], ptr @histogram_energies, i64 0, i64 %15
  store double %13, ptr %16, align 8, !tbaa !38
  br label %17

17:                                               ; preds = %6
  %18 = load i32, ptr %1, align 4, !tbaa !4
  %19 = add nsw i32 %18, 1
  store i32 %19, ptr %1, align 4, !tbaa !4
  br label %3, !llvm.loop !42

20:                                               ; preds = %3
  store i32 1, ptr %1, align 4, !tbaa !4
  br label %21

21:                                               ; preds = %35, %20
  %22 = load i32, ptr %1, align 4, !tbaa !4
  %23 = icmp slt i32 %22, 1001
  br i1 %23, label %24, label %38

24:                                               ; preds = %21
  %25 = load i32, ptr %1, align 4, !tbaa !4
  %26 = sitofp i32 %25 to double
  %27 = fdiv nsz double %26, 1.000000e+01
  %28 = fsub nsz double %27, 7.000000e+01
  %29 = fadd nsz double %28, 6.910000e-01
  %30 = fdiv nsz double %29, 1.000000e+01
  %31 = call nsz double @llvm.pow.f64(double 1.000000e+01, double %30)
  %32 = load i32, ptr %1, align 4, !tbaa !4
  %33 = sext i32 %32 to i64
  %34 = getelementptr inbounds [1001 x double], ptr @histogram_energy_boundaries, i64 0, i64 %33
  store double %31, ptr %34, align 8, !tbaa !38
  br label %35

35:                                               ; preds = %24
  %36 = load i32, ptr %1, align 4, !tbaa !4
  %37 = add nsw i32 %36, 1
  store i32 %37, ptr %1, align 4, !tbaa !4
  br label %21, !llvm.loop !43

38:                                               ; preds = %21
  call void @llvm.lifetime.end.p0(i64 4, ptr %1) #7
  ret void
}