; Function Attrs: inlinehint nofree norecurse nosync nounwind memory(write, argmem: none, inaccessiblemem: none) uwtable
define internal void @init_histogram() #3 {
  store double 0x3E7F791EC6E1D5B7, ptr @histogram_energy_boundaries, align 16, !tbaa !29
  br label %1

1:                                                ; preds = %0, %1
  %indvars.iv = phi i64 [ 0, %0 ], [ %indvars.iv.next, %1 ]
  %2 = trunc nuw nsw i64 %indvars.iv to i32
  %3 = uitofp nneg i32 %2 to double
  %4 = fdiv nsz double %3, 1.000000e+01
  %5 = fadd nsz double %4, -6.995000e+01
  %6 = fadd nsz double %5, 6.910000e-01
  %7 = fdiv nsz double %6, 1.000000e+01
  %8 = tail call nsz double @llvm.pow.f64(double 1.000000e+01, double %7)
  %9 = getelementptr inbounds nuw [1000 x double], ptr @histogram_energies, i64 0, i64 %indvars.iv
  store double %8, ptr %9, align 8, !tbaa !29
  %indvars.iv.next = add nuw nsw i64 %indvars.iv, 1
  %exitcond.not = icmp eq i64 %indvars.iv.next, 1000
  br i1 %exitcond.not, label %.preheader, label %1, !llvm.loop !37

.preheader:                                       ; preds = %1, %.preheader
  %indvars.iv11 = phi i64 [ %indvars.iv.next12, %.preheader ], [ 1, %1 ]
  %10 = trunc nuw nsw i64 %indvars.iv11 to i32
  %11 = uitofp nneg i32 %10 to double
  %12 = fdiv nsz double %11, 1.000000e+01
  %13 = fadd nsz double %12, -7.000000e+01
  %14 = fadd nsz double %13, 6.910000e-01
  %15 = fdiv nsz double %14, 1.000000e+01
  %16 = tail call nsz double @llvm.pow.f64(double 1.000000e+01, double %15)
  %17 = getelementptr inbounds nuw [1001 x double], ptr @histogram_energy_boundaries, i64 0, i64 %indvars.iv11
  store double %16, ptr %17, align 8, !tbaa !29
  %indvars.iv.next12 = add nuw nsw i64 %indvars.iv11, 1
  %exitcond14.not = icmp eq i64 %indvars.iv.next12, 1001
  br i1 %exitcond14.not, label %18, label %.preheader, !llvm.loop !38

18:                                               ; preds = %.preheader
  ret void
}